
 Start  Stop   Length Name               Class

 00000H 05133H 05134H _TEXT              CODE
 05140H 07909H 027CAH _DATA              DATA
 0790AH 0790DH 00004H _EMUSEG            DATA
 0790EH 0790FH 00002H _CRTSEG            DATA
 07910H 07910H 00000H _CVTSEG            DATA
 07910H 07910H 00000H _SCNSEG            DATA
 07910H 079EBH 000DCH _BSS               BSS
 079ECH 079ECH 00000H _BSSEND            STACK

  Address         Publics by Name

 0000:02D6       DGROUP@
 0000:52AF       emws_adjust
 0000:52B3       emws_BPsafe
 0000:52AB       emws_control
 0000:52B1       emws_fixSeg
 0000:5295       emws_initialSP
 0000:51D5       emws_limitSP
 0000:52A5       emws_nmiVector
 0000:52A1       emws_saveVector
 0000:52B5       emws_stamp
 0000:52A9       emws_status
 0000:52AD       emws_TOS
 0000:52B9       emws_version
 0000:4EFA       LDIV@
 0000:4F03       LMOD@
 0000:4EFE       LUDIV@
 0000:4F08       LUMOD@
 0000:4F9D       LXLSH@
 0000:4861       LXMUL@
 0000:3F94       PADD@
 0000:3FEF       PCMP@
 0000:3FC1       PSUB@
 0000:4FF6       SCOPY@
 0000:02C0       _abort
 0000:3957       _atexit
 0000:4E0F       _atoi
 0000:4D9D       _atol
 0000:3E13       _brk
 0000:7930       _buf
 0000:2226       _CheckFDDisplayVer
 0000:4593       _close
 0000:238C       _CodePagePrepare
 0000:2189       _CodePageSelect
 0000:0D67       _console
 0000:3714       _cpx2cpi
 0000:3648       _DescribeTSR
 0000:1E3E       _deviceError
 0000:3405       _EnsureTSR
 0000:51AF       _environ
 0000:490F       _eof
 0000:51BB       _errno
 0000:37ED       _exit
 0000:3B61       _farmalloc
 0000:497D       _fflush
 0000:4386       _fgetc
 0000:447B       _fgetchar
 0000:4D5A       _filelength
 0000:2011       _FillTableData
 0000:4A14       _fputc
 0000:4B02       _fputchar
 0000:4D33       _free
 0000:4236       _fseek
 0000:077D       _fstrlen
 0000:429A       _ftell
 0000:1FED       _GetCodePage
 0000:22BA       _GetPosition
 0000:062D       _grabarg
 0000:0757       _help
 0000:4E1D       _inport
 0000:4E28       _inportb
 0000:4E35       _int86
 0000:4E5C       _int86x
 0000:4486       _ioctl
 0000:44AF       _isatty
 0000:4836       _lseek
 0000:02D8       _main
 0000:3D48       _malloc
 0000:0B1E       _modeconcp
 0000:74FA       _mode_int17
 0000:4FBC       _movedata
 0000:405D       _open
 0000:4FDE       _outport
 0000:4FEA       _outportb
 0000:0677       _posarg
 0000:2DC0       _printer
 0000:0883       _printf
 0000:4BDB       _puts
 0000:4605       _read
 0000:226E       _ReadNumber
 0000:356D       _RedirectLptCom
 0000:0AE4       _repeat_xlate
 0000:3E21       _sbrk
 0000:1352       _screen
 0000:5012       _segread
 0000:2641       _serial
 0000:4010       _setblock
 0000:35D9       _SetRetry
 0000:44C1       _setvbuf
 0000:1B4F       _set_lines
 0000:175E       _set_vesa
 0000:2091       _ShowStatus
 0000:05FC       _skipspace
 0000:089E       _sprintf
 0000:796C       _StartPacket
 0000:487A       _strchr
 0000:48CE       _strcpy
 0000:48B1       _strlen
 0000:5027       _strncmp
 0000:5060       _strrchr
 0000:508B       _strstr
 0000:7944       _table
 0000:50EC       _tell
 0000:1DE4       _testCRTC
 0000:5103       _toupper
 0000:46DD       _write
 0000:06FC       _xlatretry
 0000:51BD       __8087
 0000:51AB       __argc
 0000:51AD       __argv
 0000:7686       __atexitcnt
 0000:79A6       __atexittbl
 0000:3EC1       __brk
 0000:51CD       __brklvl
 0000:48F2       __chmod
 0000:45C0       __close
 0000:7696       __ctype
 0000:7620       __doserrno
 0000:7622       __dosErrorToSV
 0000:51B1       __envLng
 0000:51B3       __envseg
 0000:51B5       __envSize
 0000:0220       __exit
 0000:767C       __exitbuf
 0000:767E       __exitfopen
 0000:7680       __exitopen
 0000:4373       __fgetc
 0000:7688       __first
 0000:7900       __fmode
 0000:49FB       __fputc
 0000:4B18       __FPUTN
 0000:51C9       __heapbase
 0000:7682       __heaplen
 0000:51D1       __heaptop
 0000:519B       __Int0Vector
 0000:519F       __Int4Vector
 0000:51A3       __Int5Vector
 0000:51A7       __Int6Vector
 0000:37B1       __IOERROR
 0000:768C       __last
 0000:7902       __notUmask
 0000:41A6       __open
 0000:78D8       __openfd
 0000:51B9       __osmajor
 0000:51BA       __osminor
 0000:51B7       __psp
 0000:397D       __pull_free_block
 0000:46C1       __read
 0000:7910       __RealCvtVector
 0000:0283       __restorezero
 0000:7690       __rover
 0000:3F06       __sbrk
 0000:7910       __ScanTodVector
 0000:3822       __setargv
 0000:390D       __setenvp
 0000:51BF       __StartTime
 0000:7904       __stdinStarted
 0000:7906       __stdoutStarted
 0000:7684       __stklen
 0000:7798       __streams
 0000:51B9       __version
 0000:47F0       __write
 0000:45E4       __xfflush
 0000:3DBB       ___brk
 0000:51C5       ___brklvl
 0000:79EA       ___first
 0000:51C3       ___heapbase
 0000:51C7       ___heaptop
 0000:79E6       ___last
 0000:3C69       ___pull_free_block
 0000:79E8       ___rover
 0000:3DDF       ___sbrk

  Address         Publics by Value

 0000:0220       __exit
 0000:0283       __restorezero
 0000:02C0       _abort
 0000:02D6       DGROUP@
 0000:02D8       _main
 0000:05FC       _skipspace
 0000:062D       _grabarg
 0000:0677       _posarg
 0000:06FC       _xlatretry
 0000:0757       _help
 0000:077D       _fstrlen
 0000:0883       _printf
 0000:089E       _sprintf
 0000:0AE4       _repeat_xlate
 0000:0B1E       _modeconcp
 0000:0D67       _console
 0000:1352       _screen
 0000:175E       _set_vesa
 0000:1B4F       _set_lines
 0000:1DE4       _testCRTC
 0000:1E3E       _deviceError
 0000:1FED       _GetCodePage
 0000:2011       _FillTableData
 0000:2091       _ShowStatus
 0000:2189       _CodePageSelect
 0000:2226       _CheckFDDisplayVer
 0000:226E       _ReadNumber
 0000:22BA       _GetPosition
 0000:238C       _CodePagePrepare
 0000:2641       _serial
 0000:2DC0       _printer
 0000:3405       _EnsureTSR
 0000:356D       _RedirectLptCom
 0000:35D9       _SetRetry
 0000:3648       _DescribeTSR
 0000:3714       _cpx2cpi
 0000:37B1       __IOERROR
 0000:37ED       _exit
 0000:3822       __setargv
 0000:390D       __setenvp
 0000:3957       _atexit
 0000:397D       __pull_free_block
 0000:3B61       _farmalloc
 0000:3C69       ___pull_free_block
 0000:3D48       _malloc
 0000:3DBB       ___brk
 0000:3DDF       ___sbrk
 0000:3E13       _brk
 0000:3E21       _sbrk
 0000:3EC1       __brk
 0000:3F06       __sbrk
 0000:3F94       PADD@
 0000:3FC1       PSUB@
 0000:3FEF       PCMP@
 0000:4010       _setblock
 0000:405D       _open
 0000:41A6       __open
 0000:4236       _fseek
 0000:429A       _ftell
 0000:4373       __fgetc
 0000:4386       _fgetc
 0000:447B       _fgetchar
 0000:4486       _ioctl
 0000:44AF       _isatty
 0000:44C1       _setvbuf
 0000:4593       _close
 0000:45C0       __close
 0000:45E4       __xfflush
 0000:4605       _read
 0000:46C1       __read
 0000:46DD       _write
 0000:47F0       __write
 0000:4836       _lseek
 0000:4861       LXMUL@
 0000:487A       _strchr
 0000:48B1       _strlen
 0000:48CE       _strcpy
 0000:48F2       __chmod
 0000:490F       _eof
 0000:497D       _fflush
 0000:49FB       __fputc
 0000:4A14       _fputc
 0000:4B02       _fputchar
 0000:4B18       __FPUTN
 0000:4BDB       _puts
 0000:4D33       _free
 0000:4D5A       _filelength
 0000:4D9D       _atol
 0000:4E0F       _atoi
 0000:4E1D       _inport
 0000:4E28       _inportb
 0000:4E35       _int86
 0000:4E5C       _int86x
 0000:4EFA       LDIV@
 0000:4EFE       LUDIV@
 0000:4F03       LMOD@
 0000:4F08       LUMOD@
 0000:4F9D       LXLSH@
 0000:4FBC       _movedata
 0000:4FDE       _outport
 0000:4FEA       _outportb
 0000:4FF6       SCOPY@
 0000:5012       _segread
 0000:5027       _strncmp
 0000:5060       _strrchr
 0000:508B       _strstr
 0000:50EC       _tell
 0000:5103       _toupper
 0000:519B       __Int0Vector
 0000:519F       __Int4Vector
 0000:51A3       __Int5Vector
 0000:51A7       __Int6Vector
 0000:51AB       __argc
 0000:51AD       __argv
 0000:51AF       _environ
 0000:51B1       __envLng
 0000:51B3       __envseg
 0000:51B5       __envSize
 0000:51B7       __psp
 0000:51B9       __version
 0000:51B9       __osmajor
 0000:51BA       __osminor
 0000:51BB       _errno
 0000:51BD       __8087
 0000:51BF       __StartTime
 0000:51C3       ___heapbase
 0000:51C5       ___brklvl
 0000:51C7       ___heaptop
 0000:51C9       __heapbase
 0000:51CD       __brklvl
 0000:51D1       __heaptop
 0000:51D5       emws_limitSP
 0000:5295       emws_initialSP
 0000:52A1       emws_saveVector
 0000:52A5       emws_nmiVector
 0000:52A9       emws_status
 0000:52AB       emws_control
 0000:52AD       emws_TOS
 0000:52AF       emws_adjust
 0000:52B1       emws_fixSeg
 0000:52B3       emws_BPsafe
 0000:52B5       emws_stamp
 0000:52B9       emws_version
 0000:74FA       _mode_int17
 0000:7620       __doserrno
 0000:7622       __dosErrorToSV
 0000:767C       __exitbuf
 0000:767E       __exitfopen
 0000:7680       __exitopen
 0000:7682       __heaplen
 0000:7684       __stklen
 0000:7686       __atexitcnt
 0000:7688       __first
 0000:768C       __last
 0000:7690       __rover
 0000:7696       __ctype
 0000:7798       __streams
 0000:78D8       __openfd
 0000:7900       __fmode
 0000:7902       __notUmask
 0000:7904       __stdinStarted
 0000:7906       __stdoutStarted
 0000:7910       __ScanTodVector
 0000:7910       __RealCvtVector
 0000:7930       _buf
 0000:7944       _table
 0000:796C       _StartPacket
 0000:79A6       __atexittbl
 0000:79E6       ___last
 0000:79E8       ___rover
 0000:79EA       ___first


