
 Start  Stop   Length Name               Class

 00000H 01344H 01345H CODE               CODE

  Address         Publics by Name

 0000:0893       ANSI_FN_TABLE
 0000:0E08       ARG_S
 0000:0068       BIOS_BELL
 0000:0067       BIOS_PUTCHAR
 0000:0171       BREAK_HANDLER
 0000:0069       CHAIN_HANDLERS
 0000:009F       CPRSEQ
 0000:007A       CPR_ESC
 0000:005B       CUR_ATTRIB
 0000:0056       CUR_COORDS
 0000:0061       CUR_PARM_PTR
 0000:0056       CUR_X
 0000:0057       CUR_Y
 0000:0004       DEV_INFO_WORD
 0000:0BAE       DOSFN0
 0000:1345       DOSFN0_END
 0000:0000       DRIVER_HEADER
 0000:0051       ESCVECTOR
 0000:03A4       F_ANSI_EXIT
 0000:0746       F_ESCAPE
 0000:0739       F_IN_ESCAPE
 0000:03AB       F_LOOPDONE
 0000:04DA       F_NOT_ANSI
 0000:0594       GET_BLANK_ATTRIB
 0000:00AB       GET_MAX_Y
 0000:0B33       IBM_KKR
 0000:02F6       INT_29
 0000:0225       INT_2F
 0000:04A1       IN_G_MODE
 0000:0065       IS_EGA
 0000:04B9       IS_G_OVERRIDE
 0000:0066       KBD_READ_FUNC
 0000:05F4       LOOKUP
 0000:05FE       LOOKUP_SKIPFIX
 0000:0055       MAX_X
 0000:0054       MAX_Y
 0000:08FD       NUL
 0000:0221       OLD2FOFS
 0000:0223       OLD2FSEG
 0000:0727       PARAM_BUFFER
 0000:0729       PARAM_END
 0000:0063       PORT_6845
 0000:006A       PREV_HANDLER
 0000:006A       PREV_HANDLER_O
 0000:006C       PREV_HANDLER_S
 0000:004F       PSEUDO_FLAG
 0000:072B       REDEF_END
 0000:004B       REQ_PTR
 0000:0058       SAVED_COORDS
 0000:005A       STRING_TERM
 0000:007B       TEXTMODE_TABLE
 0000:0053       VIDEO_MODE
 0000:0050       WRAP_FLAG
 0000:00D1       XY_TO_REGS

  Address         Publics by Value

 0000:0000       DRIVER_HEADER
 0000:0004       DEV_INFO_WORD
 0000:004B       REQ_PTR
 0000:004F       PSEUDO_FLAG
 0000:0050       WRAP_FLAG
 0000:0051       ESCVECTOR
 0000:0053       VIDEO_MODE
 0000:0054       MAX_Y
 0000:0055       MAX_X
 0000:0056       CUR_X
 0000:0056       CUR_COORDS
 0000:0057       CUR_Y
 0000:0058       SAVED_COORDS
 0000:005A       STRING_TERM
 0000:005B       CUR_ATTRIB
 0000:0061       CUR_PARM_PTR
 0000:0063       PORT_6845
 0000:0065       IS_EGA
 0000:0066       KBD_READ_FUNC
 0000:0067       BIOS_PUTCHAR
 0000:0068       BIOS_BELL
 0000:0069       CHAIN_HANDLERS
 0000:006A       PREV_HANDLER
 0000:006A       PREV_HANDLER_O
 0000:006C       PREV_HANDLER_S
 0000:007A       CPR_ESC
 0000:007B       TEXTMODE_TABLE
 0000:009F       CPRSEQ
 0000:00AB       GET_MAX_Y
 0000:00D1       XY_TO_REGS
 0000:0171       BREAK_HANDLER
 0000:0221       OLD2FOFS
 0000:0223       OLD2FSEG
 0000:0225       INT_2F
 0000:02F6       INT_29
 0000:03A4       F_ANSI_EXIT
 0000:03AB       F_LOOPDONE
 0000:04A1       IN_G_MODE
 0000:04B9       IS_G_OVERRIDE
 0000:04DA       F_NOT_ANSI
 0000:0594       GET_BLANK_ATTRIB
 0000:05F4       LOOKUP
 0000:05FE       LOOKUP_SKIPFIX
 0000:0727       PARAM_BUFFER
 0000:0729       PARAM_END
 0000:072B       REDEF_END
 0000:0739       F_IN_ESCAPE
 0000:0746       F_ESCAPE
 0000:0893       ANSI_FN_TABLE
 0000:08FD       NUL
 0000:0B33       IBM_KKR
 0000:0BAE       DOSFN0
 0000:0E08       ARG_S
 0000:1345       DOSFN0_END

Program entry point at 0000:0000
Warning: no stack

